Certificate:
    Data:
        Version: 3 (0x2)
        Serial Number: 1 (0x1)
        Signature Algorithm: sha256WithRSAEncryption
        Issuer: CN=devcert
        Validity
            Not Before: Apr 20 16:30:42 2020 GMT
            Not After : Jul 24 16:30:42 2022 GMT
        Subject: CN=localhost
        Subject Public Key Info:
            Public Key Algorithm: rsaEncryption
                RSA Public-Key: (2048 bit)
                Modulus:
                    00:b3:dc:92:62:e4:6a:92:43:29:81:d2:81:8c:3f:
                    53:e0:3a:48:79:b3:89:22:2a:9c:61:d3:d3:79:2b:
                    36:9c:ac:1f:d1:7e:0e:18:d7:c8:ed:cb:49:e1:d1:
                    54:a2:70:88:74:4f:8a:12:3e:bb:a2:cd:5a:67:11:
                    cf:72:b7:df:2a:4b:75:fa:d7:e9:74:19:92:8b:e3:
                    fc:3a:d3:01:17:59:5d:bb:ae:40:15:36:e7:d6:12:
                    6a:46:70:ff:d8:cd:9e:02:4e:a5:fc:80:12:6a:1f:
                    8f:2a:a6:ae:6d:6d:0f:88:6e:f7:ec:cd:70:4c:fd:
                    0f:0e:5c:05:96:05:2a:27:0a:39:fa:8f:47:14:1c:
                    49:72:ec:5a:9d:7e:00:62:13:f0:61:91:d2:2f:4d:
                    f8:23:5e:01:9b:43:e3:e7:6d:f3:fc:41:ce:49:34:
                    4b:fd:62:8e:7b:43:3d:e8:f9:3d:00:10:ac:a7:dd:
                    56:38:d1:64:c9:00:16:eb:21:0f:76:8e:5a:0c:d3:
                    32:0c:89:5e:49:d4:3a:55:3c:4d:2d:5f:75:f8:21:
                    57:be:cd:4f:be:0f:23:2f:3e:80:8b:78:be:cb:d9:
                    34:e8:27:7a:1f:3f:db:23:a7:22:59:17:55:71:11:
                    79:e0:06:4f:b6:6d:df:6d:e3:14:3b:9e:e3:a8:9a:
                    ab:f1
                Exponent: 65537 (0x10001)
        X509v3 extensions:
            X509v3 Basic Constraints: critical
                CA:FALSE
            X509v3 Subject Key Identifier: 
                64:6E:79:C6:25:83:02:36:F8:17:2B:BF:D2:3C:DD:DA:1C:25:98:6E
            X509v3 Authority Key Identifier: 
                keyid:E6:B7:D3:60:FC:3E:AC:45:6D:AF:86:60:2C:82:65:C1:E5:9A:1A:F5
                DirName:/CN=devcert
                serial:2E:18:B1:59:BC:8C:3A:0B:88:B9:48:05:15:18:45:67:96:AD:E0:83

            X509v3 Key Usage: critical
                Digital Signature, Key Encipherment
            X509v3 Extended Key Usage: 
                TLS Web Server Authentication
            X509v3 Subject Alternative Name: 
                DNS:localhost, DNS:*.localhost
    Signature Algorithm: sha256WithRSAEncryption
         55:f6:1f:b0:78:3a:e5:77:6c:aa:7a:df:24:f9:8b:bb:ac:d4:
         70:60:00:01:34:49:98:1f:60:d1:48:a4:b6:63:6e:7d:a9:ef:
         e7:42:84:ce:5d:52:b0:1f:9a:71:f4:bd:63:01:3f:3a:4c:7d:
         3f:0b:a8:5f:c8:f8:a5:3f:37:d8:a5:47:a0:51:77:a1:df:26:
         53:1a:b9:ca:6a:d9:93:0d:01:cf:18:e1:6a:c1:a6:da:69:d3:
         4f:2d:c6:5c:a7:61:6c:9f:60:30:22:cf:47:29:bb:5d:e5:8a:
         4a:af:6d:e8:49:15:35:a0:2e:fb:ef:63:5a:84:c7:e5:b5:a6:
         03:ba:eb:70:95:6c:56:96:37:23:e2:73:a3:0c:03:60:35:92:
         1e:47:c7:3d:83:fa:f7:95:a0:93:78:e8:f2:66:a4:72:2a:f1:
         e3:b9:46:eb:2e:e6:18:6b:d4:77:75:45:6b:b3:b4:2e:38:d8:
         66:59:f2:56:e3:71:02:2a:ad:60:62:6a:0d:64:a7:24:fc:3d:
         71:d0:34:21:d3:dd:4f:fd:11:02:5f:6a:6f:e1:e2:80:4a:d5:
         85:b8:4d:22:c3:72:59:c1:a9:9b:ba:1c:37:1a:0c:1e:e0:10:
         1f:3f:d4:b9:02:e6:9a:06:33:9b:0e:e5:54:31:ce:50:18:f2:
         4a:1e:cb:ef
-----BEGIN CERTIFICATE-----
MIIDaTCCAlGgAwIBAgIBATANBgkqhkiG9w0BAQsFADASMRAwDgYDVQQDDAdkZXZj
ZXJ0MB4XDTIwMDQyMDE2MzA0MloXDTIyMDcyNDE2MzA0MlowFDESMBAGA1UEAwwJ
bG9jYWxob3N0MIIBIjANBgkqhkiG9w0BAQEFAAOCAQ8AMIIBCgKCAQEAs9ySYuRq
kkMpgdKBjD9T4DpIebOJIiqcYdPTeSs2nKwf0X4OGNfI7ctJ4dFUonCIdE+KEj67
os1aZxHPcrffKkt1+tfpdBmSi+P8OtMBF1ldu65AFTbn1hJqRnD/2M2eAk6l/IAS
ah+PKqaubW0PiG737M1wTP0PDlwFlgUqJwo5+o9HFBxJcuxanX4AYhPwYZHSL034
I14Bm0Pj523z/EHOSTRL/WKOe0M96Pk9ABCsp91WONFkyQAW6yEPdo5aDNMyDIle
SdQ6VTxNLV91+CFXvs1Pvg8jLz6Ai3i+y9k06Cd6Hz/bI6ciWRdVcRF54AZPtm3f
beMUO57jqJqr8QIDAQABo4HHMIHEMAwGA1UdEwEB/wQCMAAwHQYDVR0OBBYEFGRu
ecYlgwI2+Bcrv9I83docJZhuME0GA1UdIwRGMESAFOa302D8PqxFba+GYCyCZcHl
mhr1oRakFDASMRAwDgYDVQQDDAdkZXZjZXJ0ghQuGLFZvIw6C4i5SAUVGEVnlq3g
gzAOBgNVHQ8BAf8EBAMCBaAwEwYDVR0lBAwwCgYIKwYBBQUHAwEwIQYDVR0RBBow
GIIJbG9jYWxob3N0ggsqLmxvY2FsaG9zdDANBgkqhkiG9w0BAQsFAAOCAQEAVfYf
sHg65XdsqnrfJPmLu6zUcGAAATRJmB9g0UiktmNufanv50KEzl1SsB+acfS9YwE/
Okx9PwuoX8j4pT832KVHoFF3od8mUxq5ymrZkw0BzxjhasGm2mnTTy3GXKdhbJ9g
MCLPRym7XeWKSq9t6EkVNaAu++9jWoTH5bWmA7rrcJVsVpY3I+JzowwDYDWSHkfH
PYP695Wgk3jo8makcirx47lG6y7mGGvUd3VFa7O0LjjYZlnyVuNxAiqtYGJqDWSn
JPw9cdA0IdPdT/0RAl9qb+HigErVhbhNIsNyWcGpm7ocNxoMHuAQHz/UuQLmmgYz
mw7lVDHOUBjySh7L7w==
-----END CERTIFICATE-----
